target datalayout = "e-m:e-p270:32:32-p271:32:32-p272:64:64-i64:64-i128:128-f80:128-n8:16:32:64-S128"
target triple = "x86_64-pc-linux-gnu"

@hf_zbee_zcl_commissioning_attr_stack_profile = internal global i32 0, align 4
@hf_zbee_zcl_commissioning_attr_startup_control = internal global i32 0, align 4

; Function Attrs: null_pointer_is_valid sspstrong uwtable
define internal void @dissect_zcl_commissioning_attr_data(ptr noundef %0, ptr noundef %1, ptr noundef %2, i16 noundef zeroext %3, i32 noundef %4, i1 noundef zeroext %5) #0 {
  %7 = alloca ptr, align 8
  %8 = alloca ptr, align 8
  %9 = alloca ptr, align 8
  %10 = alloca i16, align 2
  %11 = alloca i32, align 4
  %12 = alloca i8, align 1
  store ptr %0, ptr %7, align 8
  store ptr %1, ptr %8, align 8
  store ptr %2, ptr %9, align 8
  store i16 %3, ptr %10, align 2
  store i32 %4, ptr %11, align 4
  %13 = zext i1 %5 to i8
  store i8 %13, ptr %12, align 1
  %14 = load i16, ptr %10, align 2
  %15 = zext i16 %14 to i32
  switch i32 %15, label %37 [
    i32 5, label %16
    i32 6, label %26
    i32 0, label %36
    i32 1, label %36
    i32 2, label %36
    i32 3, label %36
    i32 4, label %36
    i32 16, label %36
    i32 17, label %36
    i32 18, label %36
    i32 19, label %36
    i32 20, label %36
    i32 21, label %36
    i32 22, label %36
    i32 23, label %36
    i32 32, label %36
    i32 33, label %36
    i32 34, label %36
    i32 35, label %36
    i32 48, label %36
    i32 49, label %36
    i32 64, label %36
    i32 65, label %36
    i32 66, label %36
  ]

16:                                               ; preds = %6
  %17 = load ptr, ptr %7, align 8
  %18 = load i32, ptr @hf_zbee_zcl_commissioning_attr_stack_profile, align 4
  %19 = load ptr, ptr %8, align 8
  %20 = load ptr, ptr %9, align 8
  %21 = load i32, ptr %20, align 4
  %22 = call ptr @proto_tree_add_item(ptr noundef %17, i32 noundef %18, ptr noundef %19, i32 noundef %21, i32 noundef 1, i32 noundef -2147483648)
  %23 = load ptr, ptr %9, align 8
  %24 = load i32, ptr %23, align 4
  %25 = add i32 %24, 1
  store i32 %25, ptr %23, align 4
  br label %44

26:                                               ; preds = %6
  %27 = load ptr, ptr %7, align 8
  %28 = load i32, ptr @hf_zbee_zcl_commissioning_attr_startup_control, align 4
  %29 = load ptr, ptr %8, align 8
  %30 = load ptr, ptr %9, align 8
  %31 = load i32, ptr %30, align 4
  %32 = call ptr @proto_tree_add_item(ptr noundef %27, i32 noundef %28, ptr noundef %29, i32 noundef %31, i32 noundef 1, i32 noundef -2147483648)
  %33 = load ptr, ptr %9, align 8
  %34 = load i32, ptr %33, align 4
  %35 = add i32 %34, 1
  store i32 %35, ptr %33, align 4
  br label %44

36:                                               ; preds = %6, %6, %6, %6, %6, %6, %6, %6, %6, %6, %6, %6, %6, %6, %6, %6, %6, %6, %6, %6, %6, %6
  br label %37

37:                                               ; preds = %6, %36
  %38 = load ptr, ptr %8, align 8
  %39 = load ptr, ptr %7, align 8
  %40 = load ptr, ptr %9, align 8
  %41 = load i32, ptr %11, align 4
  %42 = load i8, ptr %12, align 1, !range !6, !noundef !7
  %43 = trunc i8 %42 to i1
  call void @dissect_zcl_attr_data(ptr noundef %38, ptr noundef %39, ptr noundef %40, i32 noundef %41, i1 noundef zeroext %43)
  br label %44

44:                                               ; preds = %37, %26, %16
  ret void
}